; Function Attrs: nofree nounwind sspstrong memory(read, inaccessiblemem: none) uwtable
define dso_local noundef ptr @job_get_locked(ptr noundef readonly captures(none) %0) local_unnamed_addr #8 {
  %.011 = load ptr, ptr @jobs, align 8
  %.not12 = icmp eq ptr %.011, null
  br i1 %.not12, label %._crit_edge, label %.lr.ph

.lr.ph:                                           ; preds = %1, %5
  %.013 = phi ptr [ %.0, %5 ], [ %.011, %1 ]
  %2 = load ptr, ptr %.013, align 8
  %.not9 = icmp eq ptr %2, null
  br i1 %.not9, label %5, label %3

3:                                                ; preds = %.lr.ph
  %4 = tail call i32 @strcmp(ptr noundef nonnull dereferenceable(1) %0, ptr noundef nonnull dereferenceable(1) %2) #18
  %.not10 = icmp eq i32 %4, 0
  br i1 %.not10, label %._crit_edge, label %5

5:                                                ; preds = %.lr.ph, %3
  %6 = getelementptr inbounds nuw i8, ptr %.013, i64 240
  %.0 = load ptr, ptr %6, align 8
  %.not = icmp eq ptr %.0, null
  br i1 %.not, label %._crit_edge, label %.lr.ph, !llvm.loop !8

._crit_edge:                                      ; preds = %3, %5, %1
  %.0.lcssa = phi ptr [ null, %1 ], [ null, %5 ], [ %.013, %3 ]
  ret ptr %.0.lcssa
}